target datalayout = "e-m:e-p270:32:32-p271:32:32-p272:64:64-i64:64-i128:128-f80:128-n8:16:32:64-S128"
target triple = "x86_64-pc-linux-gnu"

; Function Attrs: null_pointer_is_valid sspstrong uwtable
define internal i32 @calculate_s5066dts_dpdu_len(ptr noundef %0, ptr noundef %1, i32 noundef %2, ptr noundef %3) #0 {
  %5 = alloca i32, align 4
  %6 = alloca ptr, align 8
  %7 = alloca ptr, align 8
  %8 = alloca i32, align 4
  %9 = alloca ptr, align 8
  %10 = alloca i32, align 4
  %11 = alloca i32, align 4
  %12 = alloca i32, align 4
  %13 = alloca i32, align 4
  %14 = alloca i32, align 4
  %15 = alloca i32, align 4
  store ptr %0, ptr %6, align 8
  store ptr %1, ptr %7, align 8
  store i32 %2, ptr %8, align 4
  store ptr %3, ptr %9, align 8
  call void @llvm.lifetime.start.p0(i64 4, ptr %10) #4
  call void @llvm.lifetime.start.p0(i64 4, ptr %11) #4
  call void @llvm.lifetime.start.p0(i64 4, ptr %12) #4
  call void @llvm.lifetime.start.p0(i64 4, ptr %13) #4
  call void @llvm.lifetime.start.p0(i64 4, ptr %14) #4
  %16 = load ptr, ptr %7, align 8
  %17 = call zeroext i8 @tvb_get_uint8(ptr noundef %16, i32 noundef 0)
  %18 = zext i8 %17 to i32
  %19 = icmp ne i32 %18, 144
  br i1 %19, label %20, label %21

20:                                               ; preds = %4
  store i32 1, ptr %5, align 4
  store i32 1, ptr %15, align 4
  br label %74

21:                                               ; preds = %4
  %22 = load ptr, ptr %7, align 8
  %23 = call zeroext i8 @tvb_get_uint8(ptr noundef %22, i32 noundef 1)
  %24 = zext i8 %23 to i32
  %25 = icmp ne i32 %24, 235
  br i1 %25, label %26, label %27

26:                                               ; preds = %21
  store i32 2, ptr %5, align 4
  store i32 1, ptr %15, align 4
  br label %74

27:                                               ; preds = %21
  br label %28

28:                                               ; preds = %27
  %29 = load ptr, ptr %7, align 8
  %30 = call zeroext i8 @tvb_get_uint8(ptr noundef %29, i32 noundef 2)
  %31 = zext i8 %30 to i32
  %32 = and i32 %31, 240
  %33 = ashr i32 %32, 4
  store i32 %33, ptr %10, align 4
  %34 = load ptr, ptr %7, align 8
  %35 = call zeroext i8 @tvb_get_uint8(ptr noundef %34, i32 noundef 5)
  %36 = zext i8 %35 to i32
  %37 = and i32 %36, 224
  %38 = ashr i32 %37, 5
  store i32 %38, ptr %11, align 4
  %39 = load ptr, ptr %7, align 8
  %40 = call zeroext i8 @tvb_get_uint8(ptr noundef %39, i32 noundef 5)
  %41 = zext i8 %40 to i32
  %42 = and i32 %41, 31
  store i32 %42, ptr %12, align 4
  %43 = load i32, ptr %12, align 4
  %44 = load i32, ptr %11, align 4
  %45 = add i32 %43, %44
  %46 = add i32 %45, 2
  store i32 %46, ptr %13, align 4
  %47 = load i32, ptr %10, align 4
  %48 = icmp eq i32 %47, 0
  br i1 %48, label %61, label %49

49:                                               ; preds = %28
  %50 = load i32, ptr %10, align 4
  %51 = icmp eq i32 %50, 2
  br i1 %51, label %61, label %52

52:                                               ; preds = %49
  %53 = load i32, ptr %10, align 4
  %54 = icmp eq i32 %53, 4
  br i1 %54, label %61, label %55

55:                                               ; preds = %52
  %56 = load i32, ptr %10, align 4
  %57 = icmp eq i32 %56, 7
  br i1 %57, label %61, label %58

58:                                               ; preds = %55
  %59 = load i32, ptr %10, align 4
  %60 = icmp eq i32 %59, 8
  br i1 %60, label %61, label %72

61:                                               ; preds = %58, %55, %52, %49, %28
  %62 = load ptr, ptr %7, align 8
  %63 = load i32, ptr %11, align 4
  %64 = add i32 6, %63
  %65 = call zeroext i16 @tvb_get_ntohs(ptr noundef %62, i32 noundef %64)
  %66 = zext i16 %65 to i32
  %67 = and i32 %66, 1023
  store i32 %67, ptr %14, align 4
  %68 = load i32, ptr %14, align 4
  %69 = add i32 %68, 4
  %70 = load i32, ptr %13, align 4
  %71 = add i32 %70, %69
  store i32 %71, ptr %13, align 4
  br label %72

72:                                               ; preds = %61, %58
  %73 = load i32, ptr %13, align 4
  store i32 %73, ptr %5, align 4
  store i32 1, ptr %15, align 4
  br label %74

74:                                               ; preds = %72, %26, %20
  call void @llvm.lifetime.end.p0(i64 4, ptr %14) #4
  call void @llvm.lifetime.end.p0(i64 4, ptr %13) #4
  call void @llvm.lifetime.end.p0(i64 4, ptr %12) #4
  call void @llvm.lifetime.end.p0(i64 4, ptr %11) #4
  call void @llvm.lifetime.end.p0(i64 4, ptr %10) #4
  %75 = load i32, ptr %5, align 4
  ret i32 %75
}