; Function Attrs: null_pointer_is_valid sspstrong uwtable
define internal range(i32 1, 1068) i32 @calculate_s5066dts_dpdu_len(ptr readnone captures(none) %0, ptr noundef %1, i32 %2, ptr readnone captures(none) %3) #0 {
  %5 = tail call zeroext i8 @tvb_get_uint8(ptr noundef %1, i32 noundef 0)
  %.not = icmp eq i8 %5, -112
  br i1 %.not, label %6, label %23

6:                                                ; preds = %4
  %7 = tail call zeroext i8 @tvb_get_uint8(ptr noundef %1, i32 noundef 1)
  %.not25 = icmp eq i8 %7, -21
  br i1 %.not25, label %8, label %23

8:                                                ; preds = %6
  %9 = tail call zeroext i8 @tvb_get_uint8(ptr noundef %1, i32 noundef 2)
  %.fr = freeze i8 %9
  %10 = tail call zeroext i8 @tvb_get_uint8(ptr noundef %1, i32 noundef 5)
  %11 = lshr i8 %10, 5
  %12 = tail call zeroext i8 @tvb_get_uint8(ptr noundef %1, i32 noundef 5)
  %13 = and i8 %12, 31
  %narrow = add nuw nsw i8 %11, 2
  %narrow26 = add nuw nsw i8 %narrow, %13
  %14 = zext nneg i8 %narrow26 to i32
  %15 = icmp ult i8 %.fr, 16
  br i1 %15, label %17, label %switch.early.test

switch.early.test:                                ; preds = %8
  %16 = lshr i8 %.fr, 4
  switch i8 %16, label %23 [
    i8 8, label %17
    i8 7, label %17
    i8 4, label %17
    i8 2, label %17
  ]

17:                                               ; preds = %switch.early.test, %switch.early.test, %switch.early.test, %switch.early.test, %8
  %narrow27 = add nuw nsw i8 %11, 6
  %18 = zext nneg i8 %narrow27 to i32
  %19 = tail call zeroext i16 @tvb_get_ntohs(ptr noundef %1, i32 noundef %18)
  %20 = and i16 %19, 1023
  %narrow28 = add nuw nsw i16 %20, 4
  %21 = zext nneg i16 %narrow28 to i32
  %22 = add nuw nsw i32 %21, %14
  br label %23

23:                                               ; preds = %17, %switch.early.test, %6, %4
  %.0 = phi i32 [ 1, %4 ], [ 2, %6 ], [ %22, %17 ], [ %14, %switch.early.test ]
  ret i32 %.0
}